target datalayout = "e-m:e-p270:32:32-p271:32:32-p272:64:64-i64:64-i128:128-f80:128-n8:16:32:64-S128"
target triple = "x86_64-pc-linux-gnu"

%class.LayoutPreferencesFrame = type { %class.QFrame, ptr, ptr, ptr, ptr, ptr, ptr, ptr, ptr, ptr, ptr, ptr, ptr }
%class.QFrame = type { %class.QWidget }
%class.QWidget = type { %class.QObject, %class.QPaintDevice.base, ptr }
%class.QObject = type { ptr, %class.QScopedPointer }
%class.QScopedPointer = type { ptr }
%class.QPaintDevice.base = type <{ ptr, i16 }>
%class.Ui_LayoutPreferencesFrame = type { ptr, ptr, ptr, ptr, ptr, ptr, ptr, ptr, ptr, ptr, ptr, ptr, ptr, ptr, ptr, ptr, ptr, ptr, ptr, ptr, ptr, ptr, ptr, ptr, ptr, ptr, ptr, ptr, ptr, ptr, ptr, ptr, ptr, ptr, ptr, ptr, ptr, ptr, ptr, ptr, ptr, ptr, ptr, ptr, ptr, ptr, ptr, ptr, ptr, ptr }

; Function Attrs: mustprogress null_pointer_is_valid sspstrong uwtable
define void @_ZN22LayoutPreferencesFrame27on_restoreButtonBox_clickedEP15QAbstractButton(ptr noundef align 8 dereferenceable_or_null(136) %0, ptr noundef %1) #0 align 2 {
  %3 = alloca ptr, align 8
  %4 = alloca ptr, align 8
  store ptr %0, ptr %3, align 8
  store ptr %1, ptr %4, align 8
  %5 = load ptr, ptr %3, align 8
  %6 = getelementptr inbounds nuw %class.LayoutPreferencesFrame, ptr %5, i32 0, i32 2
  %7 = load ptr, ptr %6, align 8
  call void @reset_stashed_pref(ptr noundef %7)
  %8 = getelementptr inbounds nuw %class.LayoutPreferencesFrame, ptr %5, i32 0, i32 3
  %9 = load ptr, ptr %8, align 8
  call void @reset_stashed_pref(ptr noundef %9)
  call void @_ZN22LayoutPreferencesFrame13updateWidgetsEv(ptr noundef align 8 dereferenceable_or_null(136) %5)
  %10 = getelementptr inbounds nuw %class.LayoutPreferencesFrame, ptr %5, i32 0, i32 4
  %11 = load ptr, ptr %10, align 8
  call void @reset_stashed_pref(ptr noundef %11)
  call void @_ZN22LayoutPreferencesFrame13updateWidgetsEv(ptr noundef align 8 dereferenceable_or_null(136) %5)
  %12 = getelementptr inbounds nuw %class.LayoutPreferencesFrame, ptr %5, i32 0, i32 5
  %13 = load ptr, ptr %12, align 8
  call void @reset_stashed_pref(ptr noundef %13)
  call void @_ZN22LayoutPreferencesFrame13updateWidgetsEv(ptr noundef align 8 dereferenceable_or_null(136) %5)
  %14 = getelementptr inbounds nuw %class.LayoutPreferencesFrame, ptr %5, i32 0, i32 1
  %15 = load ptr, ptr %14, align 8
  %16 = getelementptr inbounds nuw %class.Ui_LayoutPreferencesFrame, ptr %15, i32 0, i32 32
  %17 = load ptr, ptr %16, align 8
  %18 = getelementptr inbounds nuw %class.LayoutPreferencesFrame, ptr %5, i32 0, i32 6
  %19 = load ptr, ptr %18, align 8
  %20 = call zeroext i1 @prefs_get_bool_value(ptr noundef %19, i32 noundef 0)
  call void @_ZN15QAbstractButton10setCheckedEb(ptr noundef align 8 dereferenceable_or_null(40) %17, i1 noundef zeroext %20)
  %21 = getelementptr inbounds nuw %class.LayoutPreferencesFrame, ptr %5, i32 0, i32 1
  %22 = load ptr, ptr %21, align 8
  %23 = getelementptr inbounds nuw %class.Ui_LayoutPreferencesFrame, ptr %22, i32 0, i32 33
  %24 = load ptr, ptr %23, align 8
  %25 = getelementptr inbounds nuw %class.LayoutPreferencesFrame, ptr %5, i32 0, i32 7
  %26 = load ptr, ptr %25, align 8
  %27 = call zeroext i1 @prefs_get_bool_value(ptr noundef %26, i32 noundef 0)
  call void @_ZN15QAbstractButton10setCheckedEb(ptr noundef align 8 dereferenceable_or_null(40) %24, i1 noundef zeroext %27)
  %28 = getelementptr inbounds nuw %class.LayoutPreferencesFrame, ptr %5, i32 0, i32 1
  %29 = load ptr, ptr %28, align 8
  %30 = getelementptr inbounds nuw %class.Ui_LayoutPreferencesFrame, ptr %29, i32 0, i32 39
  %31 = load ptr, ptr %30, align 8
  %32 = getelementptr inbounds nuw %class.LayoutPreferencesFrame, ptr %5, i32 0, i32 8
  %33 = load ptr, ptr %32, align 8
  %34 = call zeroext i1 @prefs_get_bool_value(ptr noundef %33, i32 noundef 0)
  call void @_ZN15QAbstractButton10setCheckedEb(ptr noundef align 8 dereferenceable_or_null(40) %31, i1 noundef zeroext %34)
  %35 = getelementptr inbounds nuw %class.LayoutPreferencesFrame, ptr %5, i32 0, i32 1
  %36 = load ptr, ptr %35, align 8
  %37 = getelementptr inbounds nuw %class.Ui_LayoutPreferencesFrame, ptr %36, i32 0, i32 34
  %38 = load ptr, ptr %37, align 8
  %39 = getelementptr inbounds nuw %class.LayoutPreferencesFrame, ptr %5, i32 0, i32 9
  %40 = load ptr, ptr %39, align 8
  %41 = call zeroext i1 @prefs_get_bool_value(ptr noundef %40, i32 noundef 0)
  call void @_ZN15QAbstractButton10setCheckedEb(ptr noundef align 8 dereferenceable_or_null(40) %38, i1 noundef zeroext %41)
  %42 = getelementptr inbounds nuw %class.LayoutPreferencesFrame, ptr %5, i32 0, i32 1
  %43 = load ptr, ptr %42, align 8
  %44 = getelementptr inbounds nuw %class.Ui_LayoutPreferencesFrame, ptr %43, i32 0, i32 42
  %45 = load ptr, ptr %44, align 8
  %46 = getelementptr inbounds nuw %class.LayoutPreferencesFrame, ptr %5, i32 0, i32 11
  %47 = load ptr, ptr %46, align 8
  %48 = call zeroext i1 @prefs_get_bool_value(ptr noundef %47, i32 noundef 0)
  call void @_ZN15QAbstractButton10setCheckedEb(ptr noundef align 8 dereferenceable_or_null(40) %45, i1 noundef zeroext %48)
  %49 = getelementptr inbounds nuw %class.LayoutPreferencesFrame, ptr %5, i32 0, i32 1
  %50 = load ptr, ptr %49, align 8
  %51 = getelementptr inbounds nuw %class.Ui_LayoutPreferencesFrame, ptr %50, i32 0, i32 43
  %52 = load ptr, ptr %51, align 8
  %53 = getelementptr inbounds nuw %class.LayoutPreferencesFrame, ptr %5, i32 0, i32 12
  %54 = load ptr, ptr %53, align 8
  %55 = call zeroext i1 @prefs_get_bool_value(ptr noundef %54, i32 noundef 0)
  call void @_ZN15QAbstractButton10setCheckedEb(ptr noundef align 8 dereferenceable_or_null(40) %52, i1 noundef zeroext %55)
  ret void
}