; Function Attrs: mustprogress null_pointer_is_valid sspstrong uwtable
define void @_ZN22LayoutPreferencesFrame27on_restoreButtonBox_clickedEP15QAbstractButton(ptr noundef readonly align 8 captures(none) dereferenceable_or_null(136) %0, ptr noundef readnone captures(none) %1) local_unnamed_addr #0 align 2 {
  %3 = getelementptr inbounds nuw i8, ptr %0, i64 48
  %4 = load ptr, ptr %3, align 8
  tail call void @reset_stashed_pref(ptr noundef %4)
  %5 = getelementptr inbounds nuw i8, ptr %0, i64 56
  %6 = load ptr, ptr %5, align 8
  tail call void @reset_stashed_pref(ptr noundef %6)
  tail call void @_ZN22LayoutPreferencesFrame13updateWidgetsEv(ptr noundef align 8 dereferenceable_or_null(136) %0)
  %7 = getelementptr inbounds nuw i8, ptr %0, i64 64
  %8 = load ptr, ptr %7, align 8
  tail call void @reset_stashed_pref(ptr noundef %8)
  tail call void @_ZN22LayoutPreferencesFrame13updateWidgetsEv(ptr noundef align 8 dereferenceable_or_null(136) %0)
  %9 = getelementptr inbounds nuw i8, ptr %0, i64 72
  %10 = load ptr, ptr %9, align 8
  tail call void @reset_stashed_pref(ptr noundef %10)
  tail call void @_ZN22LayoutPreferencesFrame13updateWidgetsEv(ptr noundef align 8 dereferenceable_or_null(136) %0)
  %11 = getelementptr inbounds nuw i8, ptr %0, i64 40
  %12 = load ptr, ptr %11, align 8
  %13 = getelementptr inbounds nuw i8, ptr %12, i64 256
  %14 = load ptr, ptr %13, align 8
  %15 = getelementptr inbounds nuw i8, ptr %0, i64 80
  %16 = load ptr, ptr %15, align 8
  %17 = tail call zeroext i1 @prefs_get_bool_value(ptr noundef %16, i32 noundef 0)
  tail call void @_ZN15QAbstractButton10setCheckedEb(ptr noundef align 8 dereferenceable_or_null(40) %14, i1 noundef zeroext %17)
  %18 = load ptr, ptr %11, align 8
  %19 = getelementptr inbounds nuw i8, ptr %18, i64 264
  %20 = load ptr, ptr %19, align 8
  %21 = getelementptr inbounds nuw i8, ptr %0, i64 88
  %22 = load ptr, ptr %21, align 8
  %23 = tail call zeroext i1 @prefs_get_bool_value(ptr noundef %22, i32 noundef 0)
  tail call void @_ZN15QAbstractButton10setCheckedEb(ptr noundef align 8 dereferenceable_or_null(40) %20, i1 noundef zeroext %23)
  %24 = load ptr, ptr %11, align 8
  %25 = getelementptr inbounds nuw i8, ptr %24, i64 312
  %26 = load ptr, ptr %25, align 8
  %27 = getelementptr inbounds nuw i8, ptr %0, i64 96
  %28 = load ptr, ptr %27, align 8
  %29 = tail call zeroext i1 @prefs_get_bool_value(ptr noundef %28, i32 noundef 0)
  tail call void @_ZN15QAbstractButton10setCheckedEb(ptr noundef align 8 dereferenceable_or_null(40) %26, i1 noundef zeroext %29)
  %30 = load ptr, ptr %11, align 8
  %31 = getelementptr inbounds nuw i8, ptr %30, i64 272
  %32 = load ptr, ptr %31, align 8
  %33 = getelementptr inbounds nuw i8, ptr %0, i64 104
  %34 = load ptr, ptr %33, align 8
  %35 = tail call zeroext i1 @prefs_get_bool_value(ptr noundef %34, i32 noundef 0)
  tail call void @_ZN15QAbstractButton10setCheckedEb(ptr noundef align 8 dereferenceable_or_null(40) %32, i1 noundef zeroext %35)
  %36 = load ptr, ptr %11, align 8
  %37 = getelementptr inbounds nuw i8, ptr %36, i64 336
  %38 = load ptr, ptr %37, align 8
  %39 = getelementptr inbounds nuw i8, ptr %0, i64 120
  %40 = load ptr, ptr %39, align 8
  %41 = tail call zeroext i1 @prefs_get_bool_value(ptr noundef %40, i32 noundef 0)
  tail call void @_ZN15QAbstractButton10setCheckedEb(ptr noundef align 8 dereferenceable_or_null(40) %38, i1 noundef zeroext %41)
  %42 = load ptr, ptr %11, align 8
  %43 = getelementptr inbounds nuw i8, ptr %42, i64 344
  %44 = load ptr, ptr %43, align 8
  %45 = getelementptr inbounds nuw i8, ptr %0, i64 128
  %46 = load ptr, ptr %45, align 8
  %47 = tail call zeroext i1 @prefs_get_bool_value(ptr noundef %46, i32 noundef 0)
  tail call void @_ZN15QAbstractButton10setCheckedEb(ptr noundef align 8 dereferenceable_or_null(40) %44, i1 noundef zeroext %47)
  ret void
}